; Function Attrs: mustprogress uwtable
define internal void @_ZL30pj_hgridshift_reassign_contextP8PJconstsP6pj_ctx(ptr nocapture noundef readonly %0, ptr noundef %1) #3 {
  %3 = getelementptr inbounds i8, ptr %0, i64 88
  %4 = load ptr, ptr %3, align 8
  %5 = getelementptr inbounds i8, ptr %4, i64 16
  %6 = load ptr, ptr %5, align 8
  %7 = getelementptr inbounds i8, ptr %4, i64 24
  %8 = load ptr, ptr %7, align 8
  %.not9 = icmp eq ptr %6, %8
  br i1 %.not9, label %._crit_edge, label %.lr.ph

.lr.ph:                                           ; preds = %2, %.lr.ph
  %.sroa.06.010 = phi ptr [ %13, %.lr.ph ], [ %6, %2 ]
  %9 = load ptr, ptr %.sroa.06.010, align 8
  %10 = load ptr, ptr %9, align 8
  %11 = getelementptr inbounds i8, ptr %10, i64 16
  %12 = load ptr, ptr %11, align 8
  tail call void %12(ptr noundef nonnull align 8 dereferenceable(96) %9, ptr noundef %1)
  %13 = getelementptr inbounds i8, ptr %.sroa.06.010, i64 8
  %.not = icmp eq ptr %13, %8
  br i1 %.not, label %._crit_edge, label %.lr.ph

._crit_edge:                                      ; preds = %.lr.ph, %2
  ret void
}